target datalayout = "e-m:e-p270:32:32-p271:32:32-p272:64:64-i64:64-i128:128-f80:128-n8:16:32:64-S128"
target triple = "x86_64-pc-linux-gnu"

%struct.lua_State = type { ptr, i8, i8, i8, i8, i16, %union.StkIdRel, ptr, ptr, %union.StkIdRel, %union.StkIdRel, ptr, %union.StkIdRel, ptr, ptr, ptr, %struct.CallInfo, ptr, i64, i32, i32, i32, i32, i32, %struct.anon.3 }
%union.StkIdRel = type { ptr }
%struct.CallInfo = type { %union.StkIdRel, %union.StkIdRel, ptr, ptr, %union.anon, %union.anon.2, i32 }
%union.anon = type { %struct.anon.1 }
%struct.anon.1 = type { ptr, i64, i64 }
%union.anon.2 = type { i32 }
%struct.anon.3 = type { i32, i32 }

; Function Attrs: nounwind uwtable
define hidden i32 @luaD_pcall(ptr noundef %0, ptr noundef %1, ptr noundef %2, i64 noundef %3, i64 noundef %4) #0 {
  %6 = alloca ptr, align 8
  %7 = alloca ptr, align 8
  %8 = alloca ptr, align 8
  %9 = alloca i64, align 8
  %10 = alloca i64, align 8
  %11 = alloca i32, align 4
  %12 = alloca ptr, align 8
  %13 = alloca i8, align 1
  %14 = alloca i64, align 8
  store ptr %0, ptr %6, align 8, !tbaa !4
  store ptr %1, ptr %7, align 8, !tbaa !47
  store ptr %2, ptr %8, align 8, !tbaa !47
  store i64 %3, ptr %9, align 8, !tbaa !59
  store i64 %4, ptr %10, align 8, !tbaa !59
  call void @llvm.lifetime.start.p0(i64 4, ptr %11) #11
  call void @llvm.lifetime.start.p0(i64 8, ptr %12) #11
  %15 = load ptr, ptr %6, align 8, !tbaa !4
  %16 = getelementptr inbounds nuw %struct.lua_State, ptr %15, i32 0, i32 8
  %17 = load ptr, ptr %16, align 8, !tbaa !53
  store ptr %17, ptr %12, align 8, !tbaa !54
  call void @llvm.lifetime.start.p0(i64 1, ptr %13) #11
  %18 = load ptr, ptr %6, align 8, !tbaa !4
  %19 = getelementptr inbounds nuw %struct.lua_State, ptr %18, i32 0, i32 4
  %20 = load i8, ptr %19, align 1, !tbaa !58
  store i8 %20, ptr %13, align 1, !tbaa !34
  call void @llvm.lifetime.start.p0(i64 8, ptr %14) #11
  %21 = load ptr, ptr %6, align 8, !tbaa !4
  %22 = getelementptr inbounds nuw %struct.lua_State, ptr %21, i32 0, i32 18
  %23 = load i64, ptr %22, align 8, !tbaa !92
  store i64 %23, ptr %14, align 8, !tbaa !59
  %24 = load i64, ptr %10, align 8, !tbaa !59
  %25 = load ptr, ptr %6, align 8, !tbaa !4
  %26 = getelementptr inbounds nuw %struct.lua_State, ptr %25, i32 0, i32 18
  store i64 %24, ptr %26, align 8, !tbaa !92
  %27 = load ptr, ptr %6, align 8, !tbaa !4
  %28 = load ptr, ptr %7, align 8, !tbaa !47
  %29 = load ptr, ptr %8, align 8, !tbaa !47
  %30 = call i32 @luaD_rawrunprotected(ptr noundef %27, ptr noundef %28, ptr noundef %29)
  store i32 %30, ptr %11, align 4, !tbaa !9
  %31 = load i32, ptr %11, align 4, !tbaa !9
  %32 = icmp ne i32 %31, 0
  %33 = zext i1 %32 to i32
  %34 = icmp ne i32 %33, 0
  %35 = zext i1 %34 to i32
  %36 = sext i32 %35 to i64
  %37 = call i64 @llvm.expect.i64(i64 %36, i64 0)
  %38 = icmp ne i64 %37, 0
  br i1 %38, label %39, label %58

39:                                               ; preds = %5
  %40 = load ptr, ptr %12, align 8, !tbaa !54
  %41 = load ptr, ptr %6, align 8, !tbaa !4
  %42 = getelementptr inbounds nuw %struct.lua_State, ptr %41, i32 0, i32 8
  store ptr %40, ptr %42, align 8, !tbaa !53
  %43 = load i8, ptr %13, align 1, !tbaa !34
  %44 = load ptr, ptr %6, align 8, !tbaa !4
  %45 = getelementptr inbounds nuw %struct.lua_State, ptr %44, i32 0, i32 4
  store i8 %43, ptr %45, align 1, !tbaa !58
  %46 = load ptr, ptr %6, align 8, !tbaa !4
  %47 = load i64, ptr %9, align 8, !tbaa !59
  %48 = load i32, ptr %11, align 4, !tbaa !9
  %49 = call i32 @luaD_closeprotected(ptr noundef %46, i64 noundef %47, i32 noundef %48)
  store i32 %49, ptr %11, align 4, !tbaa !9
  %50 = load ptr, ptr %6, align 8, !tbaa !4
  %51 = load i32, ptr %11, align 4, !tbaa !9
  %52 = load ptr, ptr %6, align 8, !tbaa !4
  %53 = getelementptr inbounds nuw %struct.lua_State, ptr %52, i32 0, i32 10
  %54 = load ptr, ptr %53, align 8, !tbaa !34
  %55 = load i64, ptr %9, align 8, !tbaa !59
  %56 = getelementptr inbounds i8, ptr %54, i64 %55
  call void @luaD_seterrorobj(ptr noundef %50, i32 noundef %51, ptr noundef %56)
  %57 = load ptr, ptr %6, align 8, !tbaa !4
  call void @luaD_shrinkstack(ptr noundef %57)
  br label %58

58:                                               ; preds = %39, %5
  %59 = load i64, ptr %14, align 8, !tbaa !59
  %60 = load ptr, ptr %6, align 8, !tbaa !4
  %61 = getelementptr inbounds nuw %struct.lua_State, ptr %60, i32 0, i32 18
  store i64 %59, ptr %61, align 8, !tbaa !92
  %62 = load i32, ptr %11, align 4, !tbaa !9
  call void @llvm.lifetime.end.p0(i64 8, ptr %14) #11
  call void @llvm.lifetime.end.p0(i64 1, ptr %13) #11
  call void @llvm.lifetime.end.p0(i64 8, ptr %12) #11
  call void @llvm.lifetime.end.p0(i64 4, ptr %11) #11
  ret i32 %62
}