; Function Attrs: nounwind uwtable
define hidden noundef i32 @luaD_pcall(ptr noundef %0, ptr noundef readonly captures(none) %1, ptr noundef %2, i64 noundef %3, i64 noundef %4) local_unnamed_addr #0 {
  %6 = getelementptr inbounds nuw i8, ptr %0, i64 32
  %7 = load ptr, ptr %6, align 8, !tbaa !46
  %8 = getelementptr inbounds nuw i8, ptr %0, i64 11
  %9 = load i8, ptr %8, align 1, !tbaa !45
  %10 = getelementptr inbounds nuw i8, ptr %0, i64 168
  %11 = load i64, ptr %10, align 8, !tbaa !82
  store i64 %4, ptr %10, align 8, !tbaa !82
  %12 = tail call i32 @luaD_rawrunprotected(ptr noundef %0, ptr noundef %1, ptr noundef %2)
  %.not = icmp eq i32 %12, 0
  br i1 %.not, label %18, label %13, !prof !66

13:                                               ; preds = %5
  store ptr %7, ptr %6, align 8, !tbaa !46
  store i8 %9, ptr %8, align 1, !tbaa !45
  %14 = tail call i32 @luaD_closeprotected(ptr noundef nonnull %0, i64 noundef %3, i32 noundef %12)
  %15 = getelementptr inbounds nuw i8, ptr %0, i64 48
  %16 = load ptr, ptr %15, align 8, !tbaa !27
  %17 = getelementptr inbounds i8, ptr %16, i64 %3
  tail call void @luaD_seterrorobj(ptr noundef nonnull %0, i32 noundef %14, ptr noundef %17)
  tail call void @luaD_shrinkstack(ptr noundef nonnull %0)
  br label %18

18:                                               ; preds = %13, %5
  %.0 = phi i32 [ %14, %13 ], [ 0, %5 ]
  store i64 %11, ptr %10, align 8, !tbaa !82
  ret i32 %.0
}